target datalayout = "e-m:e-p270:32:32-p271:32:32-p272:64:64-i64:64-i128:128-f80:128-n8:16:32:64-S128"
target triple = "x86_64-pc-linux-gnu"

@hf_rsl_ie_id = internal global i32 0, align 4
@hf_rsl_sys_info_type = internal global i32 0, align 4
@ett_ie_sys_info_type = internal global i32 0, align 4
@.str.761 = private unnamed_addr constant [20 x i8] c"System Info Type IE\00", align 1

; Function Attrs: null_pointer_is_valid sspstrong uwtable
define internal i32 @dissect_rsl_ie_sys_info_type(ptr noundef %0, ptr noundef %1, ptr noundef %2, i32 noundef %3, i1 noundef zeroext %4, ptr noundef %5) #0 {
  %7 = alloca i32, align 4
  %8 = alloca ptr, align 8
  %9 = alloca ptr, align 8
  %10 = alloca ptr, align 8
  %11 = alloca i32, align 4
  %12 = alloca i8, align 1
  %13 = alloca ptr, align 8
  %14 = alloca ptr, align 8
  %15 = alloca i8, align 1
  %16 = alloca i32, align 4
  store ptr %0, ptr %8, align 8
  store ptr %1, ptr %9, align 8
  store ptr %2, ptr %10, align 8
  store i32 %3, ptr %11, align 4
  %17 = zext i1 %4 to i8
  store i8 %17, ptr %12, align 1
  store ptr %5, ptr %13, align 8
  call void @llvm.lifetime.start.p0(i64 8, ptr %14) #6
  call void @llvm.lifetime.start.p0(i64 1, ptr %15) #6
  %18 = load i8, ptr %12, align 1, !range !6, !noundef !7
  %19 = trunc i8 %18 to i1
  %20 = zext i1 %19 to i32
  %21 = icmp eq i32 %20, 0
  br i1 %21, label %22, label %33

22:                                               ; preds = %6
  %23 = load ptr, ptr %8, align 8
  %24 = load i32, ptr %11, align 4
  %25 = call zeroext i8 @tvb_get_uint8(ptr noundef %23, i32 noundef %24)
  store i8 %25, ptr %15, align 1
  %26 = load i8, ptr %15, align 1
  %27 = zext i8 %26 to i32
  %28 = icmp ne i32 %27, 30
  br i1 %28, label %29, label %32

29:                                               ; preds = %22
  %30 = load ptr, ptr %13, align 8
  store i8 -1, ptr %30, align 1
  %31 = load i32, ptr %11, align 4
  store i32 %31, ptr %7, align 4
  store i32 1, ptr %16, align 4
  br label %58

32:                                               ; preds = %22
  br label %33

33:                                               ; preds = %32, %6
  %34 = load ptr, ptr %10, align 8
  %35 = load ptr, ptr %8, align 8
  %36 = load i32, ptr %11, align 4
  %37 = load i32, ptr @ett_ie_sys_info_type, align 4
  %38 = call ptr @proto_tree_add_subtree(ptr noundef %34, ptr noundef %35, i32 noundef %36, i32 noundef 2, i32 noundef %37, ptr noundef null, ptr noundef @.str.761)
  store ptr %38, ptr %14, align 8
  %39 = load ptr, ptr %14, align 8
  %40 = load i32, ptr @hf_rsl_ie_id, align 4
  %41 = load ptr, ptr %8, align 8
  %42 = load i32, ptr %11, align 4
  %43 = call ptr @proto_tree_add_item(ptr noundef %39, i32 noundef %40, ptr noundef %41, i32 noundef %42, i32 noundef 1, i32 noundef 0)
  %44 = load i32, ptr %11, align 4
  %45 = add i32 %44, 1
  store i32 %45, ptr %11, align 4
  %46 = load ptr, ptr %8, align 8
  %47 = load i32, ptr %11, align 4
  %48 = call zeroext i8 @tvb_get_uint8(ptr noundef %46, i32 noundef %47)
  %49 = load ptr, ptr %13, align 8
  store i8 %48, ptr %49, align 1
  %50 = load ptr, ptr %10, align 8
  %51 = load i32, ptr @hf_rsl_sys_info_type, align 4
  %52 = load ptr, ptr %8, align 8
  %53 = load i32, ptr %11, align 4
  %54 = call ptr @proto_tree_add_item(ptr noundef %50, i32 noundef %51, ptr noundef %52, i32 noundef %53, i32 noundef 1, i32 noundef 0)
  %55 = load i32, ptr %11, align 4
  %56 = add i32 %55, 1
  store i32 %56, ptr %11, align 4
  %57 = load i32, ptr %11, align 4
  store i32 %57, ptr %7, align 4
  store i32 1, ptr %16, align 4
  br label %58

58:                                               ; preds = %33, %29
  call void @llvm.lifetime.end.p0(i64 1, ptr %15) #6
  call void @llvm.lifetime.end.p0(i64 8, ptr %14) #6
  %59 = load i32, ptr %7, align 4
  ret i32 %59
}