; Function Attrs: null_pointer_is_valid sspstrong uwtable
define internal fastcc noundef i32 @dissect_rsl_ie_sys_info_type(ptr noundef %0, ptr noundef %1, i32 noundef %2, ptr noundef writeonly captures(none) initializes((0, 1)) %3) unnamed_addr #0 {
  %5 = load i32, ptr @ett_ie_sys_info_type, align 4
  %6 = tail call ptr @proto_tree_add_subtree(ptr noundef %1, ptr noundef %0, i32 noundef %2, i32 noundef 2, i32 noundef %5, ptr noundef null, ptr noundef nonnull @.str.761)
  %7 = load i32, ptr @hf_rsl_ie_id, align 4
  %8 = tail call ptr @proto_tree_add_item(ptr noundef %6, i32 noundef %7, ptr noundef %0, i32 noundef %2, i32 noundef 1, i32 noundef 0)
  %9 = add i32 %2, 1
  %10 = tail call zeroext i8 @tvb_get_uint8(ptr noundef %0, i32 noundef %9)
  store i8 %10, ptr %3, align 1
  %11 = load i32, ptr @hf_rsl_sys_info_type, align 4
  %12 = tail call ptr @proto_tree_add_item(ptr noundef %1, i32 noundef %11, ptr noundef %0, i32 noundef %9, i32 noundef 1, i32 noundef 0)
  %13 = add i32 %2, 2
  ret i32 %13
}